(dp0
S'corr2'
p1
(lp2
cnumpy.core.multiarray
scalar
p3
(cnumpy
dtype
p4
(S'f8'
p5
I0
I1
tp6
Rp7
(I3
S'<'
p8
NNNI-1
I-1
I0
tp9
bS'\xf6D\xb3j\x16\xbe\xd2?'
p10
tp11
Rp12
ag3
(g7
S'\x9e\xed\xba\x8c\xb7>\xb0\xbf'
p13
tp14
Rp15
ag3
(g7
S'\x15Wj~\x01\x05\xde?'
p16
tp17
Rp18
ag3
(g7
S'\x1a\x9c\x16\x85\xd0\xdf\xc9?'
p19
tp20
Rp21
ag3
(g7
S'[\x9b\x1e(\xe8Y\xd0\xbf'
p22
tp23
Rp24
ag3
(g7
S'N\xef\x83\xbd\xe8\xfd\xdd?'
p25
tp26
Rp27
ag3
(g7
S'\xf40\x98\r\t\x88\xd2?'
p28
tp29
Rp30
ag3
(g7
S'\xa5\xb4\xce\xdc\x90P\xda?'
p31
tp32
Rp33
ag3
(g7
S'\x01\x92F\x17\xd1\xa0\xd5?'
p34
tp35
Rp36
ag3
(g7
S'\x94TK\xbc\x9dw\xda?'
p37
tp38
Rp39
ag3
(g7
S'\xff>\x93 Z\x96\xda?'
p40
tp41
Rp42
ag3
(g7
S'\x00\x8cD\xd9V,\xcf?'
p43
tp44
Rp45
ag3
(g7
S'@;\x10`Uk\xd8?'
p46
tp47
Rp48
ag3
(g7
S'\x17\xbb\x91\xdf/\xc6\xd9?'
p49
tp50
Rp51
ag3
(g7
S'\xbb\xf1IA+\xd0\xd4?'
p52
tp53
Rp54
ag3
(g7
S'ZG\x07-L\x00\xe1?'
p55
tp56
Rp57
ag3
(g7
S'\xe2PK\xb06\xf4\xce?'
p58
tp59
Rp60
ag3
(g7
S'\x02l\xa6\x07\x90\xb2\xb6\xbf'
p61
tp62
Rp63
ag3
(g7
S'h*0\xdd\x9c\xb9\xab\xbf'
p64
tp65
Rp66
ag3
(g7
S"\xe4'Z\x7f\xf1D\xdc?"
p67
tp68
Rp69
ag3
(g7
S'\x9dI\xff\x94\xa5+\xc1\xbf'
p70
tp71
Rp72
ag3
(g7
S'r\xb1\xa1.\xf0\xd6\xdd?'
p73
tp74
Rp75
ag3
(g7
S'\xaa\x8eF\xe5=\xf5\xc9?'
p76
tp77
Rp78
ag3
(g7
S'\xa1\x1a\x07\xfc\x90\x0e\xc1\xbf'
p79
tp80
Rp81
ag3
(g7
S'\x03\xd3\xe5\xb2\x03\xa6\xcd?'
p82
tp83
Rp84
ag3
(g7
S'>*\xd2\x9f\x8cZ\xcd?'
p85
tp86
Rp87
ag3
(g7
S'\x8b\xd1\xa2%6\xed\xd7?'
p88
tp89
Rp90
ag3
(g7
S'\xb7v?\x8fN}\xc4?'
p91
tp92
Rp93
ag3
(g7
S'\x8b2\xe8\x8eS|\xdb?'
p94
tp95
Rp96
ag3
(g7
S'\x0b\x06l@\rR\xc4?'
p97
tp98
Rp99
ag3
(g7
S'D\xb07\xe2\x0f)\xd3?'
p100
tp101
Rp102
ag3
(g7
S'\xca\xf61\x1d\nz\x9f?'
p103
tp104
Rp105
ag3
(g7
S'\xc6\xee\xd6\x03\xa9/\xdf?'
p106
tp107
Rp108
ag3
(g7
S'\x0f\xae\xfe\xa6\xaf\xa3\xc1?'
p109
tp110
Rp111
ag3
(g7
S'\xbe\x8ej\xdd\xa97\xc0?'
p112
tp113
Rp114
ag3
(g7
S'\xb7\x80K\xd9\xba\xfd\xdd?'
p115
tp116
Rp117
ag3
(g7
S'\xf6p\xd05C\xfb\xc4?'
p118
tp119
Rp120
ag3
(g7
S'\xd1\x02\r\x14\x1a\x9a\xb5?'
p121
tp122
Rp123
ag3
(g7
S'\xb7^\xfc\r\xcfD\xd7?'
p124
tp125
Rp126
ag3
(g7
S'\xaf\xe2\x93\xbf\x1e\x05\xc4?'
p127
tp128
Rp129
ag3
(g7
S'O_\xca}Z\xf6\xd2?'
p130
tp131
Rp132
ag3
(g7
S'\xef|\xbf\xe9h\xb0\xd4?'
p133
tp134
Rp135
ag3
(g7
S'\x0b/W\xac\x16\x0b\xd4?'
p136
tp137
Rp138
ag3
(g7
S'\x9eqw\x19?\xf9\xde?'
p139
tp140
Rp141
ag3
(g7
S'Ztqk\xbcw\xc7?'
p142
tp143
Rp144
ag3
(g7
S"\xbf'bQ\xc5\xaf\xd3?"
p145
tp146
Rp147
ag3
(g7
S'\xces\xc7\xbe\x1ac\xd1?'
p148
tp149
Rp150
ag3
(g7
S'\xa1cV|B5\xdc?'
p151
tp152
Rp153
ag3
(g7
S'\xb4\xf4\x04\x0cu\xe5\xd0?'
p154
tp155
Rp156
ag3
(g7
S'7PGkI,\xd6?'
p157
tp158
Rp159
ag3
(g7
S'\xcb\x19dI\x8d\x92\xb6?'
p160
tp161
Rp162
ag3
(g7
S'\x17\xef[\x17Y\xf9\xe0?'
p163
tp164
Rp165
ag3
(g7
S'\x14H\xda\xbd\xf6F\xce?'
p166
tp167
Rp168
ag3
(g7
S'\xdf\xe4\x12\xfb\xa5\xe8\x9e?'
p169
tp170
Rp171
ag3
(g7
S'LI\xca\xdd\xcc\x9c\xd7?'
p172
tp173
Rp174
ag3
(g7
S'D\x16\xf6P\x8fB\xc2?'
p175
tp176
Rp177
ag3
(g7
S'\x0co\xfe\x1e4\xa4\xd9?'
p178
tp179
Rp180
ag3
(g7
S'`b \r\xbai\xc7\xbf'
p181
tp182
Rp183
asS'corr2a'
p184
(lp185
g3
(g7
S'\x1d\x9f\xa1\x1aM\xe3\xea?'
p186
tp187
Rp188
ag3
(g7
S'c\xfaQH\x01\xe9\xeb?'
p189
tp190
Rp191
ag3
(g7
S'\x85.\xb1f.H\xe7?'
p192
tp193
Rp194
ag3
(g7
S',9[\xd7\xe6\x11\xea?'
p195
tp196
Rp197
ag3
(g7
S'ec\xd7\x00\xd6y\xe2?'
p198
tp199
Rp200
ag3
(g7
S'@\xe5\x1e \xc7\xbe\xe7?'
p201
tp202
Rp203
ag3
(g7
S'\x0b\xf4e\xe5=}\xe6?'
p204
tp205
Rp206
ag3
(g7
S'\xbb\xa84\xa6TA\xeb?'
p207
tp208
Rp209
ag3
(g7
S'\x01\xdfc\x81\xbfo\xe8?'
p210
tp211
Rp212
ag3
(g7
S'\xf8{\xf1[\nm\xe9?'
p213
tp214
Rp215
ag3
(g7
S'\x97w\x93c\xa1\x0c\xec?'
p216
tp217
Rp218
ag3
(g7
S'\xe5\xabJ\x138@\xe8?'
p219
tp220
Rp221
ag3
(g7
S'6w\xccD\xf7=\xe8?'
p222
tp223
Rp224
ag3
(g7
S'\xf8\x1b\xd7/v\xcb\xed?'
p225
tp226
Rp227
ag3
(g7
S'\xf7\xc0\xa4p\xd7\x07\xed?'
p228
tp229
Rp230
ag3
(g7
S'\xffj_\xe4N\xfc\xe7?'
p231
tp232
Rp233
ag3
(g7
S'\x07j\xf1\xc3z\xa1\xec?'
p234
tp235
Rp236
ag3
(g7
S'\x9bK\xf7\x1c\xedZ\xea?'
p237
tp238
Rp239
ag3
(g7
S'\x07\x05\x81\x99\xdd>\xe8?'
p240
tp241
Rp242
ag3
(g7
S'\x88\xb9\xd2\xd9\xaa\xb7\xec?'
p243
tp244
Rp245
ag3
(g7
S'\xb2\x05l\xf3E\xb1\xe7?'
p246
tp247
Rp248
ag3
(g7
S'n\xc0\x1cq#J\xe6?'
p249
tp250
Rp251
ag3
(g7
S'\xf1D\xc4+\xb3\xed\xe7?'
p252
tp253
Rp254
ag3
(g7
S'\x82O\n\x0b)l\xec?'
p255
tp256
Rp257
ag3
(g7
S'\x02\x91v\xb7\xe1\x92\xea?'
p258
tp259
Rp260
ag3
(g7
S'\xa1E5\xa7\xdd\xef\xec?'
p261
tp262
Rp263
ag3
(g7
S'0\xcb\xa2\xa7\x93\x15\xed?'
p264
tp265
Rp266
ag3
(g7
S'y(8i\xd5\xe5\xea?'
p267
tp268
Rp269
ag3
(g7
S'\xe4\xd5\xbd\xd3\xb8\xc8\xeb?'
p270
tp271
Rp272
ag3
(g7
S'\x8cam!\x07\xfa\xe9?'
p273
tp274
Rp275
ag3
(g7
S'\xe1\xcfB{\x86\xb2\xe4?'
p276
tp277
Rp278
ag3
(g7
S'\\G\xe2\xa4\x94\x96\xec?'
p279
tp280
Rp281
ag3
(g7
S'\xceR\x19\xd1\xceF\xeb?'
p282
tp283
Rp284
ag3
(g7
S'\xfa5\xbcw\xd7\xe5\xeb?'
p285
tp286
Rp287
ag3
(g7
S';\x89\xd8G\xaf^\xeb?'
p288
tp289
Rp290
ag3
(g7
S'\\6\xf8\x9e2C\xe7?'
p291
tp292
Rp293
ag3
(g7
S'\xcb\xf6\x12\xe5\x8f\xad\xe3?'
p294
tp295
Rp296
ag3
(g7
S'\xb3]\xea\x90\x16\xf6\xe8?'
p297
tp298
Rp299
ag3
(g7
S'nm\xa8\x06\xe4\xd4\xea?'
p300
tp301
Rp302
ag3
(g7
S'\x8a\xc3\x00ls\x1e\xe2?'
p303
tp304
Rp305
ag3
(g7
S'o([\xd9c&\xea?'
p306
tp307
Rp308
ag3
(g7
S'f\xe3N\x9fV\x13\xed?'
p309
tp310
Rp311
ag3
(g7
S'\xfey\xb9N\xd1g\xe7?'
p312
tp313
Rp314
ag3
(g7
S'D\x87\x91\xa8_\x96\xec?'
p315
tp316
Rp317
ag3
(g7
S'\x94\xb0\xe9"\r\xf0\xe5?'
p318
tp319
Rp320
ag3
(g7
S'6\x83N\x0e\xb6\x85\xe9?'
p321
tp322
Rp323
ag3
(g7
S'\xcc\xe0S<:=\xe5?'
p324
tp325
Rp326
ag3
(g7
S'\x16\xb4\x97\xe9\xd6\xd5\xeb?'
p327
tp328
Rp329
ag3
(g7
S'\xa0\xa8\xf8\xc2\x01\xdb\xec?'
p330
tp331
Rp332
ag3
(g7
S'\r\x07E$\x8e>\xe7?'
p333
tp334
Rp335
ag3
(g7
S'\x1f/1\xba;\xbb\xec?'
p336
tp337
Rp338
ag3
(g7
S'\x924LHr\xae\xea?'
p339
tp340
Rp341
ag3
(g7
S'\x07sw(\x043\xe8?'
p342
tp343
Rp344
ag3
(g7
S'42\x11_D1\xe9?'
p345
tp346
Rp347
ag3
(g7
S'\x0e\xad\x9c\xbd[\x87\xec?'
p348
tp349
Rp350
ag3
(g7
S']\x9d\xdc\x94\x00l\xe6?'
p351
tp352
Rp353
ag3
(g7
S'\x9e\xf4\xa8#\xc0\x19\xec?'
p354
tp355
Rp356
ag3
(g7
S'W\x12%BQ\x08\xe4?'
p357
tp358
Rp359
asS'sorted_correls_DRV'
p360
(lp361
S'BITTER'
p362
aS'CHALKY'
p363
aS'POWDERY'
p364
aS'PEANUTS'
p365
aS'BEANY'
p366
aS'COOLING'
p367
aS'CUCUMBER'
p368
aS'CORK'
p369
aS'MUSK'
p370
aS'POPCORN'
p371
aS'SOAPY'
p372
aS'MOTHBALLS'
p373
aS'COGNAC'
p374
aS'HEAVY'
p375
aS'MUSHROOM'
p376
aS'NUTTY'
p377
aS'CHEESY'
p378
aS'POTATOES'
p379
aS'CELERY'
p380
aS'GRAINY'
p381
aS'CEDARWOOD'
p382
aS'APPLE'
p383
aS'SICKENING'
p384
aS'CARDBOARD'
p385
aS'TAR'
p386
aS'SOUPY'
p387
aS'ALCOHOLIC'
p388
aS'DILL'
p389
aS'MEATY'
p390
aS'CARAWAY'
p391
aS'ANISE'
p392
aS'PERFUMERY'
p393
aS'YEASTY'
p394
aS'MOUSE'
p395
aS'BARK'
p396
aS'FISHY'
p397
aS'BEERY'
p398
aS'EUCALYPTUS'
p399
aS'COLOGNE'
p400
aS'SOOTY'
p401
aS'PEPPERS'
p402
aS'CLOVE'
p403
aS'COFFEE'
p404
aS'OILY'
p405
aS'LEATHER'
p406
aS'WEEDS'
p407
aS'RESIN'
p408
aS'BLOOD'
p409
aS'CREOSOTE'
p410
aS'ROSE'
p411
aS'CARBOLIC'
p412
aS'VARNISH'
p413
aS'METALLIC'
p414
aS'AMMONIA'
p415
aS'LEMON'
p416
aS'EGGY'
p417
aS'TURPENTINE'
p418
aS'PEPPERMINT'
p419
aS'TEA'
p420
aS'VINEGAR'
p421
aS'ACID'
p422
aS'MAPLE'
p423
aS'INCENSE'
p424
aS'MOLASSES'
p425
aS'LAUREL'
p426
aS'SAUERKRAUT'
p427
aS'HAY'
p428
aS'SULFUROUS'
p429
aS'RUBBER'
p430
aS'COCONUT'
p431
aS'ANIMAL'
p432
aS'HERBAL'
p433
aS'ALMOND'
p434
aS'CAMPHOR'
p435
aS'BUTTERY'
p436
aS'GERANIUM'
p437
aS'SPICY'
p438
aS'ROPE'
p439
aS'GRAPE'
p440
aS'SEWER'
p441
aS'KEROSENE'
p442
aS'AROMATIC'
p443
aS'SEMEN'
p444
aS'MUSTY'
p445
aS'GASOLINE'
p446
aS'RAISINS'
p447
aS'URINE'
p448
aS'CINNAMON'
p449
aS'LIGHT'
p450
aS'GRASS'
p451
aS'WARM'
p452
aS'CADAVEROUS'
p453
aS'FECAL'
p454
aS'URINE'
p455
aS'GRAPEFRUIT'
p456
aS'STRAWBERRY'
p457
aS'PAINT'
p458
aS'PEPPER'
p459
aS'CHEMICAL'
p460
aS'SEASONING'
p461
aS'MEDICINAL'
p462
aS'MALTY'
p463
aS'ORANGE'
p464
aS'PINEAPPLE'
p465
aS'CHOCOLATE'
p466
aS'BURNT'
p467
aS'STALE'
p468
aS'VIOLETS'
p469
aS'BANANA'
p470
aS'FRAGRANT'
p471
aS'VANILLA'
p472
aS'BAKERY'
p473
aS'CANTALOUPE'
p474
aS'CITRUS'
p475
aS'HONEY'
p476
aS'LAVENDER'
p477
aS'FRUITY'
p478
aS'CARAMEL'
p479
aS'FERMENTED'
p480
aS'PEAR'
p481
aS'CHERRY'
p482
aS'PEACH'
p483
aS'FLORAL'
p484
aS'PUTRID'
p485
aS'GARLIC'
p486
aS'RANCID'
p487
aS'SWEATY'
p488
aS'SWEET'
p489
asS'mols'
p490
(lp491
S'240'
p492
aS'326'
p493
aS'460'
p494
aS'957'
p495
aS'1049'
p496
aS'1183'
p497
aS'2758'
p498
aS'2879'
p499
aS'4133'
p500
aS'6054'
p501
aS'6374'
p502
aS'6448'
p503
aS'6501'
p504
aS'7119'
p505
aS'7410'
p506
aS'7519'
p507
aS'7583'
p508
aS'7731'
p509
aS'7749'
p510
aS'7762'
p511
aS'7921'
p512
aS'7991'
p513
aS'8030'
p514
aS'8103'
p515
aS'8118'
p516
aS'8129'
p517
aS'8635'
p518
aS'8797'
p519
aS'8892'
p520
aS'8918'
p521
aS'9609'
p522
aS'10285'
p523
aS'10430'
p524
aS'10890'
p525
aS'11902'
p526
aS'12178'
p527
aS'14286'
p528
aS'18827'
p529
aS'19310'
p530
aS'26331'
p531
aS'31252'
p532
aS'61138'
p533
aS'61199'
p534
aS'62444'
p535
aS'637563'
p536
aS'638014'
p537
aS'1551246'
p538
aS'264'
p539
aS'323'
p540
aS'3314'
p541
aS'6544'
p542
aS'6989'
p543
aS'7632'
p544
aS'7770'
p545
aS'10722'
p546
aS'12265'
p547
aS'31266'
p548
aS'5281168'
p549
asS'DRV_words2'
p550
(lp551
g475
ag416
ag456
ag464
ag478
ag465
ag440
ag457
ag383
ag481
ag474
ag483
ag470
ag484
ag411
ag469
ag477
ag400
ag370
ag393
ag471
ag443
ag476
ag482
ag434
ag377
ag438
ag403
ag449
ag426
ag420
ag461
ag459
ag402
ag389
ag391
ag374
ag408
ag382
ag373
ag419
ag435
ag399
ag466
ag472
ag489
ag423
ag479
ag463
ag447
ag425
ag431
ag392
ag388
ag446
ag418
ag437
ag380
ag407
ag451
ag433
ag368
ag428
ag381
ag394
ag473
ag480
ag398
ag372
ag406
ag385
ag439
ag468
ag445
ag379
ag395
ag376
ag365
ag366
ag417
ag396
ag369
ag467
ag424
ag404
ag386
ag410
ag412
ag462
ag460
ag362
ag422
ag421
ag427
ag415
ag455
ag448
ag397
ag444
ag430
ag401
ag442
ag405
ag436
ag458
ag413
ag371
ag390
ag387
ag487
ag488
ag378
ag429
ag486
ag414
ag409
ag432
ag441
ag485
ag454
ag453
ag384
ag364
ag363
ag450
ag375
ag367
ag452
asS'chems'
p552
(dp553
S'18554'
p554
S'2-Ethylfuran'
p555
sS'9025'
p556
S'1,3-Dimethoxybenzene'
p557
sS'5273467'
p558
S'Isoamyl cinnamate'
p559
sS'11980'
p560
S'Ethyl 2-furoate'
p561
sS'7302'
p562
S'4-Hydroxybutanoic acid lactone'
p563
sS'8094'
p564
S'Heptanoic Acid'
p565
sS'8093'
p566
S'2-octanone'
p567
sS'8091'
p568
S'Methyl caprylate'
p569
sS'10890'
p570
S'Amyl butyrate'
p571
sS'165675'
p572
S'( + )-menthol'
p573
sS'643820'
p574
S'Nerol'
p575
sS'8908'
p576
S'hexyl acetate'
p577
sS'33032'
p578
S'L-Glutamic acid'
p579
sS'7519'
p580
S'anisole'
p581
sS'61177'
p582
S'Hexyl Formate'
p583
sS'61204'
p584
S'delta-Undecalactone'
p585
sS'7409'
p586
S'alpha-Methylbenzyl alcohol'
p587
sS'61209'
p588
S'Methylcyclopentenolone'
p589
sS'7047'
p590
S'Quinoline'
p591
sS'61192'
p592
S'4-Methyl-5-thiazoleethanol acetate'
p593
sS'7127'
p594
S'4-allyl-1,2-dimethoxy benzene'
p595
sS'7122'
p596
S'Methyl beta-naphthyl ketone'
p597
sS'444683'
p598
S'(S)-( + )-2-butanol'
p599
sS'82227'
p600
S'alpha-pinene'
p601
sS'1068'
p602
S'methyl sulfide'
p603
sS'5355850'
p604
S'trans-Cinnamyl propionate'
p605
sS'5362588'
p606
S'5-Methyl-2-hepten-4-one'
p607
sS'6658'
p608
S'Methyl methacrylate'
p609
sS'1060'
p610
S'Pyruvic Acid'
p611
sS'235414'
p612
S'Omega-Pentadecalactone'
p613
sS'61293'
p614
S'ethyl-3-hydroxyhexanoate'
p615
sS'6590'
p616
S'Isobutyric acid'
p617
sS'3776'
p618
S'Isopropyl alcohol'
p619
sS'6989'
p620
S'thymol'
p621
sS'31276'
p622
S'isopentyl acetate'
p623
sS'24834'
p624
S'4-Ethoxybenzaldehyde'
p625
sS'196'
p626
S'Adipic acid'
p627
sS'31272'
p628
S'butyl acetate'
p629
sS'6386'
p630
S'tert-butanol'
p631
sS'16255'
p632
S'Isoamyl octanoate'
p633
sS'14328'
p634
S'3,4-Dimethoxyacetophenone'
p635
sS'526618'
p636
S'2-Methyl-3-methylthiofuran'
p637
sS'7632'
p638
S'dimethyl benzene propanol'
p639
sS'7991'
p640
S'valeric acid'
p641
sS'7635'
p642
S'2-ethylhexyl acetate'
p643
sS'101010'
p644
S'2-Methyl-4-propyl-1,3-oxathiane'
p645
sS'8042'
p646
S'Isopropyl myristate'
p647
sS'9256'
p648
S'Thiazole'
p649
sS'8049'
p650
S'Diethyl sebacate'
p651
sS'31246'
p652
S'4-Heptanone'
p653
sS'5779'
p654
S'D-(-)-Ribose'
p655
sS'8129'
p656
S'heptanol (replicate)'
p657
sS'8697'
p658
S'2-Ethylhexanoic acid'
p659
sS'5364231'
p660
S'cis-3-Hexenyl lactate'
p661
sS'8122'
p662
S'Ethyl stearate'
p663
sS'6274'
p664
S'L-Histidine'
p665
sS'14525'
p666
S'l-fenchone'
p667
sS'6276'
p668
S'pentanol'
p669
sS'6501'
p670
S'Ethyl 3-methyl-3-phenylglycidate'
p671
sS'15037'
p672
S'1-Furfurylpyrrole'
p673
sS'6505'
p674
S'Tributyl-2-Acetylcitrate'
p675
sS'11617'
p676
S'Allyl Sulfide'
p677
sS'11614'
p678
S'Butyl formate'
p679
sS'241'
p680
S'Benzene'
p681
sS'6374'
p682
S'Iodoform'
p683
sS'61386'
p684
S'Isoamyl laurate'
p685
sS'243'
p686
S'Benzoic acid'
p687
sS'61027'
p688
S'Butyl 10-undecenoate'
p689
sS'61024'
p690
S'Octyl isobutyrate'
p691
sS'62580'
p692
S'Piperonyl isobutyrate'
p693
sS'8467'
p694
S'Ethyl Vanillin'
p695
sS'22873'
p696
S'Hexyl hexanoate'
p697
sS'8468'
p698
S'4-hydroxy-3-methoxybenzoic acid'
p699
sS'10797'
p700
S'2-Methylfuran'
p701
sS'62465'
p702
S'4-Ethylguaiacol'
p703
sS'8193'
p704
S'Lauryl alcohol'
p705
sS'13204'
p706
S'delta-Hexalactone'
p707
sS'7559'
p708
S'Methyl phenylacetate'
p709
sS'61331'
p710
S'Guaiacyl phenylacetate'
p711
sS'62900'
p712
S'Whiskey lactone'
p713
sS'61337'
p714
S'Allyl 2-furoate'
p715
sS'62902'
p716
S'Ethyl 2-methylpentanoate (replicate)'
p717
sS'3893'
p718
S'Lauric acid'
p719
sS'2682'
p720
S'1-Hexadecanol'
p721
sS'16537'
p722
S'Terpinyl formate'
p723
sS'15717'
p724
S'Allyl phenylacetate'
p725
sS'78925'
p726
S'2-(Methylthio)ethanol'
p727
sS'9024'
p728
S'alpha,alpha-Dimethylphenethyl acetate'
p729
sS'5950'
p730
S'L-Alanine'
p731
sS'6753'
p732
S'omega-6-Hexadecenlactone'
p733
sS'16741'
p734
S'2-Phenylethyl isothiocyanate'
p735
sS'220674'
p736
S'L-Menthyl acetate (replicate)'
p737
sS'12813'
p738
S'gamma-decalactone'
p739
sS'778574'
p740
S'Isobutyl cinnamate'
p741
sS'17617'
p742
S'Allyl cyclohexanepropionate'
p743
sS'62089'
p744
S'(\xb1)-4-Methyloctanoic acid'
p745
sS'239'
p746
S'beta-Alanine'
p747
sS'14491'
p748
S'1,6-Hexanedithiol'
p749
sS'62087'
p750
S'2-Mercapto-3-butanol'
p751
sS'2345'
p752
S'Benzyl benzoate'
p753
sS'159055'
p754
S'D-Camphor'
p755
sS'2346'
p756
S'Benzyl isothiocyanate'
p757
sS'6106'
p758
S'L-Leucine'
p759
sS'638024'
p760
S'Piperine'
p761
sS'18635'
p762
S'3-(Methylthio)propionaldehyde'
p763
sS'12327'
p764
S'Ethyl undecanoate'
p765
sS'8163'
p766
S'2-Undecanone'
p767
sS'31283'
p768
S'Ethyl myristate'
p769
sS'5362798'
p770
S'cis-4-Decen-1-ol'
p771
sS'7820'
p772
S'dimethyl succinate'
p773
sS'7826'
p774
S'Methyl heptanoate'
p775
sS'8797'
p776
S'p-Tolyl acetate'
p777
sS'61809'
p778
S'2-Ethoxythiazole'
p779
sS'16220109'
p780
S'cis-3-Hexenyl tiglate'
p781
sS'7749'
p782
S'ethyl propionate'
p783
sS'853433'
p784
S'Isoeugenol'
p785
sS'31234'
p786
S'3-Phenyl-1-propanol'
p787
sS'2537'
p788
S'Camphor'
p789
sS'5318599'
p790
S'trans-2-Octen-1-ol'
p791
sS'12377'
p792
S'dipropyl disulfide'
p793
sS'7593'
p794
S'1,3-Diphenyl-2-propanone'
p795
sS'7695'
p796
S'Anisyl acetate'
p797
sS'5315892'
p798
S'Cinnamyl alcohol'
p799
sS'6322'
p800
S'L-Arginine'
p801
sS'10748'
p802
S'7-Methoxycoumarin'
p803
sS'61199'
p804
S'5-Ethyl-3-hydroxy-4-methyl-2(5H)-furanone (replicate)'
p805
sS'12178'
p806
S'3-hexanol (replicate)'
p807
sS'444539'
p808
S'trans-Cinnamic acid'
p809
sS'14104'
p810
S'1-Methyl-3-methoxy-4-isopropylbenzene'
p811
sS'145742'
p812
S'L-Proline'
p813
sS'10285'
p814
S'4-Methylquinoline'
p815
sS'10886'
p816
S'Amyl hexanoate'
p817
sS'10448'
p818
S'3-(methylthio)-1-propanol'
p819
sS'10882'
p820
S'Ethyl Valerate'
p821
sS'62332'
p822
S'Phenethyl salicylate'
p823
sS'69963'
p824
S'5-Hexen-1-ol'
p825
sS'8878'
p826
S'Allyl heptanoate'
p827
sS'4133'
p828
S'methyl salicylate'
p829
sS'24116'
p830
S'Allyl anthranilate'
p831
sS'379'
p832
S'Octanoic acid'
p833
sS'62835'
p834
S'4,5-Dimethyl-3-hydroxy-2,5-dihydrofuran-2-one'
p835
sS'521238'
p836
S'3-Octyl Acetate'
p837
sS'702'
p838
S'ethanol'
p839
sS'9016'
p840
S'dimethoxy benzene'
p841
sS'6140'
p842
S'L-Phenylalanine'
p843
sS'9012'
p844
S'Benzyl disulfide'
p845
sS'5363233'
p846
S'3-Decen-2-one'
p847
sS'9862'
p848
S'6-Methyl-5-hepten-2-one'
p849
sS'7137'
p850
S'isoeugenol acetate'
p851
sS'7136'
p852
S'Eugenyl Acetate'
p853
sS'637563'
p854
S'trans-Anethole'
p855
sS'6669'
p856
S'musk ketone'
p857
sS'24020'
p858
S'Ethyl 2-methylbutyrate'
p859
sS'637566'
p860
S'geraniol'
p861
sS'641423'
p862
S'Allyl cinnamate'
p863
sS'6920'
p864
S'2-Acetylthiophene'
p865
sS'61527'
p866
S'3-Acetyl-2,5-dimethylfuran'
p867
sS'61523'
p868
S'5-Phenyl-1-pentanol'
p869
sS'14296'
p870
S'2,3,5,6-Tetramethylpyrazine'
p871
sS'5960'
p872
S'Aspartic Acid'
p873
sS'5961'
p874
S'L-Glutamine'
p875
sS'5962'
p876
S'L-Lysine'
p877
sS'31249'
p878
S'diethyl succinate'
p879
sS'16324'
p880
S'Allyl butyrate'
p881
sS'6584'
p882
S'methyl acetate'
p883
sS'8205'
p884
S'Lauryl acetate'
p885
sS'1136'
p886
S'4-Methyl-5-thiazoleethanol'
p887
sS'31244'
p888
S'p-Anisaldehyde'
p889
sS'244'
p890
S'benzyl alcohol'
p891
sS'24203'
p892
S'Sodium phosphate dibasic'
p893
sS'11124'
p894
S'Methyl Propionate'
p895
sS'240'
p896
S'benzaldehyde'
p897
sS'5352837'
p898
S'cis-5-Octen-1-ol'
p899
sS'21057'
p900
S'1-Hepten-3-ol'
p901
sS'11086'
p902
S'2-Aminoacetophenone'
p903
sS'13436'
p904
S'Phenyl disulfide'
p905
sS'7144'
p906
S'2-Methoxy-4-methylphenol'
p907
sS'7147'
p908
S'1-Phenyl-1-propanol'
p909
sS'641256'
p910
S'trans,trans-2,4-Hexadien-1-ol'
p911
sS'565690'
p912
S'Menthyl isovalerate'
p913
sS'8723'
p914
S'2-Methyl-1-butanol (replicate)'
p915
sS'1001'
p916
S'Phenethylamine'
p917
sS'104721'
p918
S'2-Acetyl-3,5(6)-dimethylpyrazine'
p919
sS'8051'
p920
S'2-heptanone'
p921
sS'5541'
p922
S'Triacetin'
p923
sS'454'
p924
S'octanal'
p925
sS'8118'
p926
S'propyl sulfide'
p927
sS'8294'
p928
S'Linalyl acetate'
p929
sS'177'
p930
S'acetaldehyde'
p931
sS'176'
p932
S'acetic acid'
p933
sS'17121'
p934
S'1-Octen-3-yl acetate'
p935
sS'7916'
p936
S'Isopropenyl acetate'
p937
sS'7915'
p938
S'isopropyl acetate (replicate)'
p939
sS'2733294'
p940
S'trans-2-Hexenyl acetate'
p941
sS'5352539'
p942
S'cis-3-Hexenyl isobutyrate'
p943
sS'24513'
p944
S'Decanal dimethyl acetal'
p945
sS'8615'
p946
S'Phenethyl anthranilate'
p947
sS'180'
p948
S'acetone'
p949
sS'7983'
p950
S'butyl butyrate'
p951
sS'650'
p952
S'2,3-butanedione'
p953
sS'61130'
p954
S'(1R)-(-)-Myrtenal'
p955
sS'7824'
p956
S'methyl caproate'
p957
sS'10400'
p958
S'Cycloheptanone'
p959
sS'8375'
p960
S'2-Hydroxyacetophenone'
p961
sS'62378'
p962
S'Dihydrojasmone'
p963
sS'62375'
p964
S'Benzaldehyde dimethyl acetal'
p965
sS'62374'
p966
S'4-Oxoisophorone'
p967
sS'88454'
p968
S'Hexyl propionate'
p969
sS'9589'
p970
S'3-Acetylpyridine'
p971
sS'23235'
p972
S'Hexyl benzoate (replicate)'
p973
sS'62572'
p974
S'ethyl-3-hydroxybutyrate'
p975
sS'13216'
p976
S'Decahydro-2-naphthol'
p977
sS'8184'
p978
S'1-undecanol'
p979
sS'8186'
p980
S'undecanal'
p981
sS'8180'
p982
S'Undecanoic acid'
p983
sS'7765'
p984
S'Acetal'
p985
sS'61659'
p986
S"2,2'-(Thiodimethylene)difuran"
p987
sS'7761'
p988
S'Diethyl malonate'
p989
sS'7762'
p990
S'ethyl butyrate'
p991
sS'7768'
p992
S'epsilon-Caprolactam'
p993
sS'2758'
p994
S'1,8-cineole'
p995
sS'887'
p996
S'methanol'
p997
sS'10857465'
p998
S'Ambrox'
p999
sS'11525'
p1000
S'4-Methylcyclohexanone'
p1001
sS'11527'
p1002
S'3-Octanol'
p1003
sS'10430'
p1004
S'isovaleric acid'
p1005
sS'11529'
p1006
S'Butyl Propionate'
p1007
sS'32594'
p1008
S'2-isobutyl-3-methoxypyrazine'
p1009
sS'61005'
p1010
S'2-Phenoxyethyl isobutyrate'
p1011
sS'323'
p1012
S'coumarin'
p1013
sS'61151'
p1014
S'Methyl 2-methoxybenzoate'
p1015
sS'326'
p1016
S'cuminaldehyde'
p1017
sS'325'
p1018
S'4-Isopropylbenzyl alcohol'
p1019
sS'61408'
p1020
S'Allyl 2-ethylbutyrate'
p1021
sS'2879'
p1022
S'p-cresol'
p1023
sS'679'
p1024
S'Methyl sulfoxide'
p1025
sS'5280450'
p1026
S'Linoleic acid'
p1027
sS'109-19-0'
p1028
S'isobutyl acetate'
p1029
sS'92979'
p1030
S'Androstadienone'
p1031
sS'11419'
p1032
S'2-Methylcyclohexanone'
p1033
sS'1049'
p1034
S'pyridine'
p1035
sS'6137'
p1036
S'L-Methionine'
p1037
sS'637796'
p1038
S'Isosafrole'
p1039
sS'98330'
p1040
S'2,5-Dihydroxy-1,4-dithiane'
p1041
sS'638014'
p1042
S'beta-Ionone'
p1043
sS'5365049'
p1044
S'cis-3-Hexenyl propionate'
p1045
sS'8159'
p1046
S'heptyl acetate'
p1047
sS'21648'
p1048
S'4-(4-Hydroxyphenyl)-2-butanone'
p1049
sS'660'
p1050
S'Dihydrocoumarin'
p1051
sS'444972'
p1052
S'Fumaric acid'
p1053
sS'15510'
p1054
S'Cyclopentanethiol'
p1055
sS'8785'
p1056
S'benzyl acetate'
p1057
sS'637776'
p1058
S'methyl isoeugenol'
p1059
sS'13561'
p1060
S'6-Undecanone'
p1061
sS'8658'
p1062
S'o-Anisaldehyde (replicate)'
p1063
sS'8712'
p1064
S'o-Toluenethiol'
p1065
sS'31209'
p1066
S'alpha-Amylcinnamaldehyde'
p1067
sS'7194'
p1068
S'Phenethyl benzoate'
p1069
sS'994'
p1070
S'DL-Phenylalanine'
p1071
sS'24197'
p1072
S'Diethyl malate'
p1073
sS'8438'
p1074
S'piperonal'
p1075
sS'85522'
p1076
S'Methyl (methylthio)acetate'
p1077
sS'10722'
p1078
S'o-Tolualdehyde'
p1079
sS'7967'
p1080
S'Cyclohexanone'
p1081
sS'126'
p1082
S'4-Hydroxybenzaldehyde'
p1083
sS'7969'
p1084
S'Benzenethiol'
p1085
sS'6448'
p1086
S'Bornyl acetate'
p1087
sS'8025'
p1088
S'Ethyl formate'
p1089
sS'6569'
p1090
S'2-butanone'
p1091
sS'5610'
p1092
S'Tyramine'
p1093
sS'6561'
p1094
S'Isobutyraldehyde'
p1095
sS'6560'
p1096
S'2-methyl-1-propanol'
p1097
sS'5371102'
p1098
S'cis-3-Hexenyl salicylate'
p1099
sS'7720'
p1100
S'2-ethyl-1-hexanol'
p1101
sS'12265'
p1102
S'2,5-Dimethylpyrrole'
p1103
sS'311'
p1104
S'Citric acid'
p1105
sS'11569'
p1106
S'm-Anisaldehyde'
p1107
sS'62444'
p1108
S'Methyl thiobutyrate'
p1109
sS'11567'
p1110
S'3-Methylcyclohexanone'
p1111
sS'12506'
p1112
S'Tetrahydrofurfuryl acetate'
p1113
sS'12348'
p1114
S'pentyl acetate'
p1115
sS'7360'
p1116
S'Tetrahydrofurfuryl alcohol'
p1117
sS'7361'
p1118
S'Furfuryl alcohol'
p1119
sS'8048'
p1120
S'Ethyl decanoate'
p1121
sS'24473'
p1122
S'D-Dihydrocarvone'
p1123
sS'6213'
p1124
S'Methyl sulfone'
p1125
sS'61052'
p1126
S'3-Phenylpropyl propionate'
p1127
sS'61229'
p1128
S'Vanillin Acetate'
p1129
sS'6826'
p1130
S'Dimethyl anthranilate'
p1131
sS'5362814'
p1132
S'cis-4-Heptenal'
p1133
sS'3314'
p1134
S'eugenol'
p1135
sS'8815'
p1136
S'4-Allylanisole'
p1137
sS'106441'
p1138
S'2-Methoxy-3(5 or 6)-isopropylpyrazine'
p1139
sS'14286'
p1140
S'2-acetyl pyridine'
p1141
sS'61653'
p1142
S'2,4,5-Trimethylthiazole'
p1143
sS'1550470'
p1144
S'Ethyl sorbate'
p1145
sS'440967'
p1146
S'(-)-beta-Pinene'
p1147
sS'7799'
p1148
S'Ethyl octanoate'
p1149
sS'7654'
p1150
S'Phenethyl acetate'
p1151
sS'7657'
p1152
S'Benzyl ether'
p1153
sS'8174'
p1154
S'decanol'
p1155
sS'7793'
p1156
S'(-)-citronellol'
p1157
sS'7792'
p1158
S'3,7-Dimethyl-1-octanol'
p1159
sS'7795'
p1160
S'Isoamyl butyrate'
p1161
sS'8125'
p1162
S'1-Octene'
p1163
sS'7797'
p1164
S'Ethyl heptanoate'
p1165
sS'27457'
p1166
S'2-Ethyl-3-methylpyrazine'
p1167
sS'7095'
p1168
S'Biphenyl'
p1169
sS'7092'
p1170
S'6-Methylcoumarin'
p1171
sS'27458'
p1172
S'2,3-Diethylpyrazine'
p1173
sS'7151'
p1174
S'Methyl nicotinate'
p1175
sS'7150'
p1176
S'methyl benzoate'
p1177
sS'11428'
p1178
S'3-pentanol'
p1179
sS'11583'
p1180
S'2-hexanone'
p1181
sS'1032'
p1182
S'propionic acid'
p1183
sS'1030'
p1184
S'Propylene glycol'
p1185
sS'1031'
p1186
S'propanol'
p1187
sS'5364729'
p1188
S'Allyl tiglate'
p1189
sS'8103'
p1190
S'hexanol'
p1191
sS'7921'
p1192
S'gamma-valerolactone'
p1193
sS'23642'
p1194
S'2-Methoxythiophenol'
p1195
sS'8063'
p1196
S'valeraldehyde'
p1197
sS'106997'
p1198
S'2-Ethylfenchol'
p1199
sS'17525'
p1200
S'hexyl butyrate'
p1201
sS'962'
p1202
S'Water'
p1203
sS'61945'
p1204
S'Pyrazineethanethiol'
p1205
sS'17898'
p1206
S'2-Methoxy-3-methylpyrazine'
p1207
sS'7997'
p1208
S'propyl acetate'
p1209
sS'31252'
p1210
S'2,5-dimethyl pyrazine'
p1211
sS'6054'
p1212
S'2-phenylethanol'
p1213
sS'6057'
p1214
S'L-Tyrosine'
p1215
sS'6050'
p1216
S'Tributyrin'
p1217
sS'8363'
p1218
S'Benzyl salicylate'
p1219
sS'246728'
p1220
S'3-octanone'
p1221
sS'6506'
p1222
S'Triethyl citrate'
p1223
sS'13187'
p1224
S'2-Nonanone'
p1225
sS'12810'
p1226
S'delta-Decalactone'
p1227
sS'89440'
p1228
S'6-Acetyl-1,1,2,4,4,7-Hexamethyltetralin'
p1229
sS'10364'
p1230
S'Carvacrol'
p1231
sS'62725'
p1232
S'2-Isobutylthiazole'
p1233
sS'6287'
p1234
S'L-Valine'
p1235
sS'875'
p1236
S'DL-Tartaric acid'
p1237
sS'36822'
p1238
S'5,6,7,8-Tetrahydroquinoxaline'
p1239
sS'5366244'
p1240
S'Phytol'
p1241
sS'7770'
p1242
S'propyl butyrate'
p1243
sS'251531'
p1244
S'Phenethyl 2-furoate'
p1245
sS'807'
p1246
S'Iodine'
p1247
sS'7476'
p1248
S'Acetanisole'
p1249
sS'61641'
p1250
S'Methyl 3-(methylthio)propionate'
p1251
sS'60999'
p1252
S'Benzyl phenylacetate'
p1253
sS'60998'
p1254
S'Isobutyl phenylacetate'
p1255
sS'6997'
p1256
S'2-ethylphenol'
p1257
sS'5367706'
p1258
S'cis-3-Hexenyl benzoate'
p1259
sS'520108'
p1260
S'2-Acetylthiazole'
p1261
sS'7335'
p1262
S'carvyl acetate'
p1263
sS'8082'
p1264
S'Piperidine'
p1265
sS'439570'
p1266
S'(-)-Carvone'
p1267
sS'356'
p1268
S'Octane'
p1269
sS'7500'
p1270
S'ethylbenzene'
p1271
sS'8914'
p1272
S'nonanol'
p1273
sS'18827'
p1274
S'1-Octen-3-ol'
p1275
sS'8918'
p1276
S'Nonyl acetate'
p1277
sS'8857'
p1278
S'ethyl acetate'
p1279
sS'15606'
p1280
S'Methyl nonanoate'
p1281
sS'2969'
p1282
S'decanoic acid'
p1283
sS'5363491'
p1284
S'trans,trans-2,4-Hexadienyl acetate (replicate)'
p1285
sS'61185'
p1286
S'N-Amyl octanoate'
p1287
sS'1549025'
p1288
S'Neryl acetate'
p1289
sS'1549026'
p1290
S'geranyl acetate'
p1291
sS'62144'
p1292
S'2-Furanmethanethiol formate'
p1293
sS'957'
p1294
S'octanol'
p1295
sS'7119'
p1296
S'Nerolin Yara Yara'
p1297
sS'7059'
p1298
S'6-methyl quinoline'
p1299
sS'556940'
p1300
S'Ethyl 3-(furfurylthio)propionate'
p1301
sS'6429333'
p1302
S'2-Phenyl-2-butenal'
p1303
sS'19310'
p1304
S'Dimethyl trisulfide'
p1305
sS'520191'
p1306
S'3-Acetyl-2,5-dimethylthiophene'
p1307
sS'5363388'
p1308
S'cis-3-hexenyl acetate'
p1309
sS'7803'
p1310
S'Propyl propionate'
p1311
sS'6998'
p1312
S'salicylaldehyde'
p1313
sS'31268'
p1314
S'Pyrrolidine'
p1315
sS'440917'
p1316
S'd-Limonene'
p1317
sS'31265'
p1318
S'ethyl hexanoate'
p1319
sS'8635'
p1320
S'Methyl anthranilate'
p1321
sS'31266'
p1322
S'allyl hexanoate'
p1323
sS'31260'
p1324
S'isoamyl alcohol'
p1325
sS'263'
p1326
S'butanol'
p1327
sS'262'
p1328
S'butanediol'
p1329
sS'261'
p1330
S'butyraldehyde'
p1331
sS'264'
p1332
S'butyric acid'
p1333
sS'5281168'
p1334
S'2-hexenal'
p1335
sS'519539'
p1336
S'2-(1-Methylpropyl)thiazole'
p1337
sS'170833'
p1338
S'(-)-Isopulegol'
p1339
sS'12580'
p1340
S'4-propylphenol'
p1341
sS'5281167'
p1342
S'cis-3-Hexen-1-ol'
p1343
sS'7601'
p1344
S'Phenethyl phenylacetate'
p1345
sS'31219'
p1346
S'Benzyl propionate'
p1347
sS'31210'
p1348
S'Butyl phenylacetate'
p1349
sS'7894'
p1350
S'Isoamylamine'
p1351
sS'9261'
p1352
S'pyrazine'
p1353
sS'8030'
p1354
S'Thiophene'
p1355
sS'7341'
p1356
S'2-Methylpentanoic acid'
p1357
sS'31404'
p1358
S'Butylated hydroxytoluene'
p1359
sS'8137'
p1360
S'Methyl 2-nonynoate'
p1361
sS'12587'
p1362
S'4-Methylvaleric acid'
p1363
sS'11902'
p1364
S'methyl 2-furoate'
p1365
sS'14514'
p1366
S'2-Acetyl-5-methylfuran'
p1367
sS'61918'
p1368
S'2-Acetyl-3-ethylpyrazine'
p1369
sS'12097'
p1370
S'5-Methylfurfural'
p1371
sS'7731'
p1372
S'4-Methylanisole'
p1373
sS'6999977'
p1374
S'Butyl (S)-(-)-lactate'
p1375
sS'62351'
p1376
S'3-(Methylthio)propyl isothiocyanate'
p1377
sS'18467'
p1378
S'2-Methoxypyrazine'
p1379
sS'8456'
p1380
S'Butylated hydroxyanisole'
p1381
sS'8452'
p1382
S'Cyclopentanone'
p1383
sS'22386'
p1384
S'2-pentanol'
p1385
sS'3578033'
p1386
S'3-(5-Methyl-2-furyl)butanal'
p1387
sS'8892'
p1388
S'caproic acid'
p1389
sS'61048'
p1390
S'Isobutyl benzoate'
p1391
sS'22310'
p1392
S'linalool oxide'
p1393
sS'61325'
p1394
S'2,5-Dimethyl-4-methoxy-3(2H)-furanone'
p1395
sS'5368076'
p1396
S'Methyl trans-2-nonenoate'
p1397
sS'14228'
p1398
S'Hexyl octanoate'
p1399
sS'61252'
p1400
S'4,5-Dihydro-3(2H)-thiophenone'
p1401
sS'26331'
p1402
S'2-ethyl pyrazine'
p1403
sS'101604'
p1404
S'Nopol acetate'
p1405
sS'5367698'
p1406
S'cis-3-Hexenyl phenylacetate'
p1407
sS'5780'
p1408
S'D-Sorbitol'
p1409
sS'228769'
p1410
S'Octyl isovalerate'
p1411
sS'61138'
p1412
S'4-Pentenoic acid'
p1413
sS'5862'
p1414
S'L-Cysteine'
p1415
sS'753'
p1416
S'glycerol'
p1417
sS'750'
p1418
S'Glycine'
p1419
sS'520296'
p1420
S'delta-Tetradecalactone'
p1421
sS'6202'
p1422
S'Thiamine hydrochloride'
p1423
sS'14257'
p1424
S'undecane'
p1425
sS'6544'
p1426
S'Isophorone'
p1427
sS'12020'
p1428
S'1-Penten-3-ol'
p1429
sS'61155'
p1430
S'2-Methoxyphenyl acetate'
p1431
sS'15654'
p1432
S'4-Methyl-5-vinylthiazole'
p1433
sS'12180'
p1434
S'Methyl butyrate'
p1435
sS'93375'
p1436
S'Trivertal'
p1437
sS'6114390'
p1438
S'Isoeugenyl phenylacetate'
p1439
sS'12748'
p1440
S'4-Methylthiazole'
p1441
sS'27440'
p1442
S'2-Ethyl-4-methylthiazole'
p1443
sS'2214'
p1444
S'Acetovanillone'
p1445
sS'10895'
p1446
S'Isobutyl propionate'
p1447
sS'12741'
p1448
S'2-decanone'
p1449
sS'1183'
p1450
S'vanillin'
p1451
sS'3796-70-1'
p1452
S'6,10-Dimethyl-5,9-undecadien-2-one'
p1453
sS'7165'
p1454
S'Ethyl benzoate'
p1455
sS'10925'
p1456
S'3-Methyl-1-butanethiol'
p1457
sS'1551246'
p1458
S'3,7-Dimethyl-2,6-octadienenitrile'
p1459
sS'8078'
p1460
S'Cyclohexane'
p1461
sS'15380'
p1462
S'Bis(methylthio)methane'
p1463
sS'8175'
p1464
S'decanal'
p1465
sS'7937'
p1466
S'2,6-Dimethylpyridine'
p1467
sS'7288'
p1468
S'3-Pentanone'
p1469
sS'8077'
p1470
S'Diethyl disulfide'
p1471
sS'6943'
p1472
S'2-Isopropylphenol'
p1473
sS'5365027'
p1474
S'cis-2-Nonen-1-ol'
p1475
sS'7410'
p1476
S'acetophenone'
p1477
sS'12297'
p1478
S'2-hexanol'
p1479
sS'3102'
p1480
S'benzophenone'
p1481
sS'1110'
p1482
S'Succinic acid'
p1483
sS'637758'
p1484
S'ethyl cinnamate'
p1485
sS'6184'
p1486
S'Hexanal'
p1487
sS'31225'
p1488
S'Phenethyl propionate'
p1489
sS'9609'
p1490
S'Diethyl sulfide'
p1491
sS'460'
p1492
S'Guaiacol (replicate)'
p1493
sS'8419'
p1494
S'Veratraldehyde'
p1495
sS'21363'
p1496
S'Cyclohexaneacetic acid'
p1497
sS'8007'
p1498
S'Butylamine'
p1499
sS'595928'
p1500
S'Benzaldehyde propylene glycol acetal'
p1501
sS'61771'
p1502
S'2-sec-Butylcyclohexanone'
p1503
sS'6549'
p1504
S'Linalool'
p1505
sS'7583'
p1506
S'Diphenyl ether'
p1507
sS'7463'
p1508
S'para-cymene'
p1509
sS'12206'
p1510
S'Methyl valerate'
p1511
sS'61670'
p1512
S'5-Methylquinoxaline'
p1513
ssS'corr'
p1514
(lp1515
g3
(g7
S'\xc3\xce\xa2df\x8b\xe4?'
p1516
tp1517
Rp1518
ag3
(g7
S'!}\x1c+\xba*\xcf?'
p1519
tp1520
Rp1521
ag3
(g7
S'\xfcH\xc6\\\xfdI\xe1?'
p1522
tp1523
Rp1524
ag3
(g7
S'\xab\xc7\xbb\x07\xa0\x18\xe2?'
p1525
tp1526
Rp1527
ag3
(g7
S"'\xa0\xd8\x8c\x9d\x85\xe5?"
p1528
tp1529
Rp1530
ag3
(g7
S'\xe5\x96\xda\xe5&/\xe2?'
p1531
tp1532
Rp1533
ag3
(g7
S'\xa5\x00\xf8\x07\xa08\xdc?'
p1534
tp1535
Rp1536
ag3
(g7
S'2\x83\xf6\xdbJv\xe1?'
p1537
tp1538
Rp1539
ag3
(g7
S'gH\xddB\xfb\x10\xa2\xbf'
p1540
tp1541
Rp1542
ag3
(g7
S'\xa8x\xaf\x99\x08\xb2\xe6?'
p1543
tp1544
Rp1545
ag3
(g7
S'Mw&jO<\xe4?'
p1546
tp1547
Rp1548
ag3
(g7
S'\xf1\x06i0xt\xe7?'
p1549
tp1550
Rp1551
ag3
(g7
S'\xe3\xdd\x18:I\x94\xe3?'
p1552
tp1553
Rp1554
ag3
(g7
S' \x8d\x039\x9dI\xe8?'
p1555
tp1556
Rp1557
ag3
(g7
S'\xaaFE#EY\xcb?'
p1558
tp1559
Rp1560
ag3
(g7
S'88\xf5~7p\xe3?'
p1561
tp1562
Rp1563
ag3
(g7
S'F!\xbfc\x13y\xe5?'
p1564
tp1565
Rp1566
ag3
(g7
S'<SN&\xcb&\xc2?'
p1567
tp1568
Rp1569
ag3
(g7
S'o`\x87t5\x93\xc0\xbf'
p1570
tp1571
Rp1572
ag3
(g7
S'\x11\x8d\xaf\xfc{{\xb5?'
p1573
tp1574
Rp1575
ag3
(g7
S'\xda\xd7\xfca\xe0\xb7\xe3?'
p1576
tp1577
Rp1578
ag3
(g7
S'\xf16r%t\x8c\xde?'
p1579
tp1580
Rp1581
ag3
(g7
S'\xb8\x9f?;}Y\xe5?'
p1582
tp1583
Rp1584
ag3
(g7
S'\xb7\xd6\xed\x1b\x13\x0b\xe7?'
p1585
tp1586
Rp1587
ag3
(g7
S'Wl\xa5\xa3u;\xd7?'
p1588
tp1589
Rp1590
ag3
(g7
S'Y\xa5\xf2d\x13 \xb2\xbf'
p1591
tp1592
Rp1593
ag3
(g7
S'\x8dE\nE\xb1u\xda?'
p1594
tp1595
Rp1596
ag3
(g7
S'\xd9\xe5\x9fy\x0f\x1c\xc4?'
p1597
tp1598
Rp1599
ag3
(g7
S'\x9f\xf5\xe9\xc80\xfb\xdf?'
p1600
tp1601
Rp1602
ag3
(g7
S'\x8es<\xa0\x99\x08\xd5?'
p1603
tp1604
Rp1605
ag3
(g7
S'q\xa6f\xf1\x19\xc7\xd0?'
p1606
tp1607
Rp1608
ag3
(g7
S't\x7fgx\xd5\xd4\xe1?'
p1609
tp1610
Rp1611
ag3
(g7
S'\xbb\\\xa3{h\xcc\xe1?'
p1612
tp1613
Rp1614
ag3
(g7
S't\xf4W\x9c\xcaU\xc2?'
p1615
tp1616
Rp1617
ag3
(g7
S'OK\xb5D/\x8e\xa6?'
p1618
tp1619
Rp1620
ag3
(g7
S'O\x9bT\x95\x8a#\xb0?'
p1621
tp1622
Rp1623
ag3
(g7
S'\xc8{\xb0+\x81\x81\xb3\xbf'
p1624
tp1625
Rp1626
ag3
(g7
S'Z\xaaZ\xd4/\xbd\xc8?'
p1627
tp1628
Rp1629
ag3
(g7
S'\xd4H\x1a*\xac_\xa7\xbf'
p1630
tp1631
Rp1632
ag3
(g7
S'B\xd7D\x98\x0f\xf6\xb3\xbf'
p1633
tp1634
Rp1635
ag3
(g7
S'\xa7_\x0f\x15\xd5\x88\xd0?'
p1636
tp1637
Rp1638
ag3
(g7
S'\x0c?\x83\xdc\xb8\t\xd9?'
p1639
tp1640
Rp1641
ag3
(g7
S'\x06\xb5M\x9clg\xc0?'
p1642
tp1643
Rp1644
ag3
(g7
S'G0\x97\xe0\x9a8\xe2?'
p1645
tp1646
Rp1647
ag3
(g7
S'D\xfa\xe7C\x1f\x02\xe4?'
p1648
tp1649
Rp1650
ag3
(g7
S'\xaeN#\xda\xb1{\xe9?'
p1651
tp1652
Rp1653
ag3
(g7
S'\x1d\xcdE\x82\x98\xd7\xd3?'
p1654
tp1655
Rp1656
ag3
(g7
S'\xac\x92\x1d\xa4;\xbe\xe5?'
p1657
tp1658
Rp1659
ag3
(g7
S'[\xb2\x04\x89\xb6\x17\xe2?'
p1660
tp1661
Rp1662
ag3
(g7
S'Q\xdb\x1b\xd7\xafE\xdf?'
p1663
tp1664
Rp1665
ag3
(g7
S'T9F\xbe}\x7f\xd4?'
p1666
tp1667
Rp1668
ag3
(g7
S'\x1f\x9f\xd7L\xca\\\xd6?'
p1669
tp1670
Rp1671
ag3
(g7
S'\x8eb\xf5u\x19\x91\xb3?'
p1672
tp1673
Rp1674
ag3
(g7
S'\x06\xd7\x7f\x83`F\xa3?'
p1675
tp1676
Rp1677
ag3
(g7
S'\x8e4\xf9T\x0b\xb8\xde?'
p1678
tp1679
Rp1680
ag3
(g7
S'\xe1U\xee\xb4\xecu\xd0?'
p1681
tp1682
Rp1683
ag3
(g7
S'\xb4$Z\x17\x02B\xd9?'
p1684
tp1685
Rp1686
ag3
(g7
S'\xb1\x1d\t\x91`\xfb\xaa\xbf'
p1687
tp1688
Rp1689
ag3
(g7
S'\x19\x87)\xe8\xcb(\xc6?'
p1690
tp1691
Rp1692
ag3
(g7
S'\x9e\xfb\x07\xc1|I\xe0?'
p1693
tp1694
Rp1695
ag3
(g7
S'9\xca\x1a\xc3\xfa\x8f\xd6?'
p1696
tp1697
Rp1698
ag3
(g7
S'\xe8\xd8\xcb\x957/\xc2\xbf'
p1699
tp1700
Rp1701
ag3
(g7
S'\xa4\x95\xd8\xde\xebV\xd5?'
p1702
tp1703
Rp1704
ag3
(g7
S'\xd4\x88\xa0\x9c\xad~\xa8\xbf'
p1705
tp1706
Rp1707
ag3
(g7
S'\xf4U:B\x19\xee\xb5?'
p1708
tp1709
Rp1710
ag3
(g7
S'\x01gh\xba9\x03\xe4?'
p1711
tp1712
Rp1713
ag3
(g7
S' \xa2\xb5Q\x84\x06\xe6?'
p1714
tp1715
Rp1716
ag3
(g7
S'\xc2\xddEzVA\xbd?'
p1717
tp1718
Rp1719
ag3
(g7
S'\xd3\xf8 *\x91\xd8\xb4\xbf'
p1720
tp1721
Rp1722
ag3
(g7
S'\xf7\xf6\xec1V\xeb\xc5?'
p1723
tp1724
Rp1725
ag3
(g7
S'-!\xa7\xdd\x14\x8cx\xbf'
p1726
tp1727
Rp1728
ag3
(g7
S'_\xd54p/\xfd\xdb?'
p1729
tp1730
Rp1731
ag3
(g7
S'\x8bq\x06\xdd`\x10\xe3?'
p1732
tp1733
Rp1734
ag3
(g7
S'\xad\x0f\x113\x83\xaa\xde?'
p1735
tp1736
Rp1737
ag3
(g7
S'\xc8\xcdk\xd1\xd5\x86\xab\xbf'
p1738
tp1739
Rp1740
ag3
(g7
S'{\xec\xf6g\x01\x7f\xb9?'
p1741
tp1742
Rp1743
ag3
(g7
S'\x1c\x1d\xb8\x9b\x7f\xac\xb2\xbf'
p1744
tp1745
Rp1746
ag3
(g7
S'OE\xdc\x02.\xce\xce\xbf'
p1747
tp1748
Rp1749
ag3
(g7
S'\xdf\xdb\xa3p/!\xcc\xbf'
p1750
tp1751
Rp1752
ag3
(g7
S'A"o\xec\x07\xe8\xcf?'
p1753
tp1754
Rp1755
ag3
(g7
S'`H1\x8b\x90\x88\xb9?'
p1756
tp1757
Rp1758
ag3
(g7
S'\xc1Q\xf6\xb4\xdc\x9e\xc0\xbf'
p1759
tp1760
Rp1761
ag3
(g7
S'c,\xcf\xf9\xc4\xab\xe2?'
p1762
tp1763
Rp1764
ag3
(g7
S'n\x01\xd0\xc3\xce\x12\xd4?'
p1765
tp1766
Rp1767
ag3
(g7
S'\xf7\x1a\x9c\xe9\xa1\xf6\xc4?'
p1768
tp1769
Rp1770
ag3
(g7
S'\xcbjB\x9fKmn\xbf'
p1771
tp1772
Rp1773
ag3
(g7
S'\x84\t\xe6\xe1h\xc2\xca?'
p1774
tp1775
Rp1776
ag3
(g7
S'\x86?\x9c?\xfbb\xcb?'
p1777
tp1778
Rp1779
ag3
(g7
S'\x89\xd3<Y\x8f\x12\xe2?'
p1780
tp1781
Rp1782
ag3
(g7
S'\xd5\xe2T\x03\x17\xd0\xe1?'
p1783
tp1784
Rp1785
ag3
(g7
S'u\xb3\x9fb\xd5K\xd7\xbf'
p1786
tp1787
Rp1788
ag3
(g7
S'\xd1J\xa7`\x8c{\xd3?'
p1789
tp1790
Rp1791
ag3
(g7
S'I\x971\x86dI\xd1?'
p1792
tp1793
Rp1794
ag3
(g7
S'\x1f\xb8\xa5\xf3\x812\xd5?'
p1795
tp1796
Rp1797
ag3
(g7
S'=\x8f^)M\x17\xcf?'
p1798
tp1799
Rp1800
ag3
(g7
S'v\x91\xa8\xde\xbd\x1c\xe1?'
p1801
tp1802
Rp1803
ag3
(g7
S'w\x0f\xe22\x02\x88\xdf?'
p1804
tp1805
Rp1806
ag3
(g7
S'\xe1\x9a\x01\xaf,\xcf\xba?'
p1807
tp1808
Rp1809
ag3
(g7
S'\xba\x95b\xcfu\x90\xde?'
p1810
tp1811
Rp1812
ag3
(g7
S'n\x02Vc\x8e\x1b\xd6?'
p1813
tp1814
Rp1815
ag3
(g7
S'\x03\xadL\xc8\xdcE\xc2?'
p1816
tp1817
Rp1818
ag3
(g7
S"kd0\x8c'\r\xde?"
p1819
tp1820
Rp1821
ag3
(g7
S'\xf6\x0bz\xae\\\xf8\xc4?'
p1822
tp1823
Rp1824
ag3
(g7
S'C\x7f\x06DC\x1c\xd9?'
p1825
tp1826
Rp1827
ag3
(g7
S'4\x990\xd0\rw\xe1?'
p1828
tp1829
Rp1830
ag3
(g7
S'\xc4"\xe4\x84\xd3"\xcd?'
p1831
tp1832
Rp1833
ag3
(g7
S'\x95\xaf\xe9\x90B\xeb\xba\xbf'
p1834
tp1835
Rp1836
ag3
(g7
S'\xbc\xf7\x06\xa3R\xb3\xac?'
p1837
tp1838
Rp1839
ag3
(g7
S'\x7f6\xb0\xfbMv\x92?'
p1840
tp1841
Rp1842
ag3
(g7
S'I\xa1\xdc\x03\x9c0\xe9?'
p1843
tp1844
Rp1845
ag3
(g7
S'\xbc^t Er\xe9?'
p1846
tp1847
Rp1848
ag3
(g7
S'{\xdf\xcca\xd6O\xb0\xbf'
p1849
tp1850
Rp1851
ag3
(g7
S'\xdb\xd4q^g\x97\xd5?'
p1852
tp1853
Rp1854
ag3
(g7
S'\xcc?2T\x85\xb9\xe8?'
p1855
tp1856
Rp1857
ag3
(g7
S'\xcc\xfd\x95\x14 \xd6\xcd?'
p1858
tp1859
Rp1860
ag3
(g7
S'\x1d\xc9\x18\xa3{\x99\xc9?'
p1861
tp1862
Rp1863
ag3
(g7
S'b\xab\x8d\xec\x86k\xd6?'
p1864
tp1865
Rp1866
ag3
(g7
S'\xb2\xc9\xde\t\x1b\xe0\xdc?'
p1867
tp1868
Rp1869
ag3
(g7
S'\x0b\x7fY\xb4\xa4\xa3\xe8?'
p1870
tp1871
Rp1872
ag3
(g7
S'\xeff@\xdd\x84\x16\xe1?'
p1873
tp1874
Rp1875
ag3
(g7
S'\x1f\\\xcd\xb1\xaf\xa2\xe0?'
p1876
tp1877
Rp1878
ag3
(g7
S'\xbcT\xfbX\x0e\xcb\x89\xbf'
p1879
tp1880
Rp1881
ag3
(g7
S'\xf7`hqx+\xd1\xbf'
p1882
tp1883
Rp1884
ag3
(g7
S'=HJ\xe2\x05\xaa\xd6\xbf'
p1885
tp1886
Rp1887
ag3
(g7
S'\xd5k\xebj\xe2/\xe0?'
p1888
tp1889
Rp1890
ag3
(g7
S'\x08J\xaf\xc1\x80\r\xb3\xbf'
p1891
tp1892
Rp1893
ag3
(g7
S'\x95\xde0I; \xc4\xbf'
p1894
tp1895
Rp1896
ag3
(g7
S'G85\xc8h\x89\xe0?'
p1897
tp1898
Rp1899
as.